target datalayout = "e-m:e-p270:32:32-p271:32:32-p272:64:64-i64:64-i128:128-f80:128-n8:16:32:64-S128"
target triple = "x86_64-pc-linux-gnu"

%union.pthread_mutex_t = type { %struct.__pthread_mutex_s }
%struct.__pthread_mutex_s = type { i32, i32, i32, i32, i32, i16, i16, %struct.__pthread_internal_list }
%struct.__pthread_internal_list = type { ptr, ptr }
%struct.wolfSSL_RefWithMutex = type { %union.pthread_mutex_t, i32 }
%struct.WOLFSSL_CERT_MANAGER = type { [11 x ptr], ptr, ptr, ptr, ptr, ptr, ptr, ptr, ptr, ptr, ptr, ptr, ptr, %union.pthread_mutex_t, i8, i16, i16, %struct.wolfSSL_RefWithMutex }

; Function Attrs: nounwind uwtable
define i32 @wolfSSL_CertManager_up_ref(ptr noundef %0) #0 {
  %2 = alloca ptr, align 8
  %3 = alloca i32, align 4
  %4 = alloca i32, align 4
  store ptr %0, ptr %2, align 8, !tbaa !9
  call void @llvm.lifetime.start.p0(i64 4, ptr %3) #9
  store i32 1, ptr %3, align 4, !tbaa !7
  %5 = load ptr, ptr %2, align 8, !tbaa !9
  %6 = icmp eq ptr %5, null
  br i1 %6, label %7, label %8

7:                                                ; preds = %1
  store i32 0, ptr %3, align 4, !tbaa !7
  br label %8

8:                                                ; preds = %7, %1
  %9 = load i32, ptr %3, align 4, !tbaa !7
  %10 = icmp eq i32 %9, 1
  br i1 %10, label %11, label %21

11:                                               ; preds = %8
  call void @llvm.lifetime.start.p0(i64 4, ptr %4) #9
  %12 = load ptr, ptr %2, align 8, !tbaa !9
  %13 = getelementptr inbounds nuw %struct.WOLFSSL_CERT_MANAGER, ptr %12, i32 0, i32 17
  call void @wolfSSL_RefWithMutexInc(ptr noundef %13, ptr noundef %4)
  %14 = load i32, ptr %4, align 4, !tbaa !7
  %15 = icmp ne i32 %14, 0
  br i1 %15, label %16, label %20

16:                                               ; preds = %11
  br label %17

17:                                               ; preds = %16
  br label %18

18:                                               ; preds = %17
  br label %19

19:                                               ; preds = %18
  store i32 0, ptr %3, align 4, !tbaa !7
  br label %20

20:                                               ; preds = %19, %11
  call void @llvm.lifetime.end.p0(i64 4, ptr %4) #9
  br label %21

21:                                               ; preds = %20, %8
  %22 = load i32, ptr %3, align 4, !tbaa !7
  call void @llvm.lifetime.end.p0(i64 4, ptr %3) #9
  ret i32 %22
}