; Function Attrs: nounwind uwtable
define range(i32 0, 2) i32 @wolfSSL_CertManager_up_ref(ptr noundef %0) local_unnamed_addr #0 {
  %2 = alloca i32, align 4
  %.not = icmp eq ptr %0, null
  br i1 %.not, label %6, label %3

3:                                                ; preds = %1
  call void @llvm.lifetime.start.p0(i64 4, ptr nonnull %2) #22
  %4 = getelementptr inbounds nuw i8, ptr %0, i64 232
  call void @wolfSSL_RefWithMutexInc(ptr noundef nonnull %4, ptr noundef nonnull %2) #22
  %5 = load i32, ptr %2, align 4, !tbaa !3
  %.not3 = icmp eq i32 %5, 0
  %spec.select = zext i1 %.not3 to i32
  call void @llvm.lifetime.end.p0(i64 4, ptr nonnull %2) #22
  br label %6

6:                                                ; preds = %3, %1
  %.0 = phi i32 [ %spec.select, %3 ], [ 0, %1 ]
  ret i32 %.0
}